target datalayout = "e-m:e-p270:32:32-p271:32:32-p272:64:64-i64:64-i128:128-f80:128-n8:16:32:64-S128"
target triple = "x86_64-pc-linux-gnu"

%struct.cli_hashtable = type { ptr, i64, i64, i64 }

; Function Attrs: nounwind uwtable
define internal i64 @nearest_power(i64 noundef %0) #0 {
  %2 = alloca i64, align 8
  %3 = alloca i64, align 8
  %4 = alloca i64, align 8
  store i64 %0, ptr %3, align 8
  store i64 64, ptr %4, align 8
  br label %5

5:                                                ; preds = %16, %1
  %6 = load i64, ptr %4, align 8
  %7 = load i64, ptr %3, align 8
  %8 = icmp ult i64 %6, %7
  br i1 %8, label %9, label %17

9:                                                ; preds = %5
  %10 = load i64, ptr %4, align 8
  %11 = shl i64 %10, 1
  store i64 %11, ptr %4, align 8
  %12 = load i64, ptr %4, align 8
  %13 = icmp eq i64 %12, 0
  br i1 %13, label %14, label %16

14:                                               ; preds = %9
  %15 = load i64, ptr %3, align 8
  store i64 %15, ptr %2, align 8
  br label %19

16:                                               ; preds = %9
  br label %5

17:                                               ; preds = %5
  %18 = load i64, ptr %4, align 8
  store i64 %18, ptr %2, align 8
  br label %19

19:                                               ; preds = %17, %14
  %20 = load i64, ptr %2, align 8
  ret i64 %20
}

; Function Attrs: nounwind uwtable
define i32 @cli_hashtab_init(ptr noundef %0, i64 noundef %1) #0 {
  %3 = alloca i32, align 4
  %4 = alloca ptr, align 8
  %5 = alloca i64, align 8
  store ptr %0, ptr %4, align 8
  store i64 %1, ptr %5, align 8
  %6 = load ptr, ptr %4, align 8
  %7 = icmp ne ptr %6, null
  br i1 %7, label %9, label %8

8:                                                ; preds = %2
  store i32 2, ptr %3, align 4
  br label %32

9:                                                ; preds = %2
  %10 = load i64, ptr %5, align 8
  %11 = call i64 @nearest_power(i64 noundef %10)
  store i64 %11, ptr %5, align 8
  %12 = load i64, ptr %5, align 8
  %13 = call ptr @cli_max_calloc(i64 noundef %12, i64 noundef 24)
  %14 = load ptr, ptr %4, align 8
  %15 = getelementptr inbounds %struct.cli_hashtable, ptr %14, i32 0, i32 0
  store ptr %13, ptr %15, align 8
  %16 = load ptr, ptr %4, align 8
  %17 = getelementptr inbounds %struct.cli_hashtable, ptr %16, i32 0, i32 0
  %18 = load ptr, ptr %17, align 8
  %19 = icmp ne ptr %18, null
  br i1 %19, label %21, label %20

20:                                               ; preds = %9
  store i32 20, ptr %3, align 4
  br label %32

21:                                               ; preds = %9
  %22 = load i64, ptr %5, align 8
  %23 = load ptr, ptr %4, align 8
  %24 = getelementptr inbounds %struct.cli_hashtable, ptr %23, i32 0, i32 1
  store i64 %22, ptr %24, align 8
  %25 = load ptr, ptr %4, align 8
  %26 = getelementptr inbounds %struct.cli_hashtable, ptr %25, i32 0, i32 2
  store i64 0, ptr %26, align 8
  %27 = load i64, ptr %5, align 8
  %28 = mul i64 8, %27
  %29 = udiv i64 %28, 10
  %30 = load ptr, ptr %4, align 8
  %31 = getelementptr inbounds %struct.cli_hashtable, ptr %30, i32 0, i32 3
  store i64 %29, ptr %31, align 8
  store i32 0, ptr %3, align 4
  br label %32

32:                                               ; preds = %21, %20, %8
  %33 = load i32, ptr %3, align 4
  ret i32 %33
}