; Function Attrs: nounwind uwtable
define noundef i32 @cli_hashtab_init(ptr noundef writeonly %0, i64 noundef %1) local_unnamed_addr #0 {
  %.not = icmp eq ptr %0, null
  br i1 %.not, label %14, label %.preheader

.preheader:                                       ; preds = %2, %4
  %.0.i = phi i64 [ %5, %4 ], [ 64, %2 ]
  %3 = icmp ult i64 %.0.i, %1
  br i1 %3, label %4, label %nearest_power.exit

4:                                                ; preds = %.preheader
  %5 = shl i64 %.0.i, 1
  %6 = icmp eq i64 %5, 0
  br i1 %6, label %nearest_power.exit, label %.preheader

nearest_power.exit:                               ; preds = %.preheader, %4
  %.07.i = phi i64 [ %1, %4 ], [ %.0.i, %.preheader ]
  %7 = tail call ptr @cli_max_calloc(i64 noundef %.07.i, i64 noundef 24) #18
  store ptr %7, ptr %0, align 8
  %.not11 = icmp eq ptr %7, null
  br i1 %.not11, label %14, label %8

8:                                                ; preds = %nearest_power.exit
  %9 = getelementptr inbounds i8, ptr %0, i64 8
  store i64 %.07.i, ptr %9, align 8
  %10 = getelementptr inbounds i8, ptr %0, i64 16
  store i64 0, ptr %10, align 8
  %11 = shl i64 %.07.i, 3
  %12 = udiv i64 %11, 10
  %13 = getelementptr inbounds i8, ptr %0, i64 24
  store i64 %12, ptr %13, align 8
  br label %14

14:                                               ; preds = %nearest_power.exit, %2, %8
  %.0 = phi i32 [ 0, %8 ], [ 2, %2 ], [ 20, %nearest_power.exit ]
  ret i32 %.0
}